target datalayout = "e-m:e-p270:32:32-p271:32:32-p272:64:64-i64:64-i128:128-f80:128-n8:16:32:64-S128"
target triple = "x86_64-pc-linux-gnu"

%struct.sfparse_vec = type { ptr, i64 }

@.str = private unnamed_addr constant [2 x i8] c"0\00", align 1
@.str.1 = private unnamed_addr constant [107 x i8] c"generated/home/dtcxzyw/WorkSpace/Projects/compilers/llvm-opt-benchmark/bench/nghttp2/nghttp2/lib/sfparse.c\00", align 1
@.str.2 = private unnamed_addr constant [10 x i8] c"idx != -1\00", align 1
@__PRETTY_FUNCTION__.sfparse_base64decode = private unnamed_addr constant [62 x i8] c"void sfparse_base64decode(sfparse_vec *, const sfparse_vec *)\00", align 1
@.str.3 = private unnamed_addr constant [31 x i8] c"'=' == src->base[src->len - 1]\00", align 1

; Function Attrs: nounwind uwtable
define hidden void @sfparse_base64decode(ptr noundef %0, ptr noundef %1) #0 {
  %3 = alloca ptr, align 8
  %4 = alloca ptr, align 8
  %5 = alloca ptr, align 8
  %6 = alloca ptr, align 8
  %7 = alloca ptr, align 8
  %8 = alloca i32, align 4
  %9 = alloca i64, align 8
  %10 = alloca i64, align 8
  %11 = alloca i32, align 4
  %12 = alloca i32, align 4
  store ptr %0, ptr %3, align 8, !tbaa !8
  store ptr %1, ptr %4, align 8, !tbaa !8
  call void @llvm.lifetime.start.p0(i64 8, ptr %5) #5
  call void @llvm.lifetime.start.p0(i64 8, ptr %6) #5
  call void @llvm.lifetime.start.p0(i64 8, ptr %7) #5
  call void @llvm.lifetime.start.p0(i64 4, ptr %8) #5
  call void @llvm.lifetime.start.p0(i64 8, ptr %9) #5
  call void @llvm.lifetime.start.p0(i64 8, ptr %10) #5
  call void @llvm.lifetime.start.p0(i64 4, ptr %11) #5
  %13 = load ptr, ptr %4, align 8, !tbaa !8
  %14 = getelementptr inbounds nuw %struct.sfparse_vec, ptr %13, i32 0, i32 1
  %15 = load i64, ptr %14, align 8, !tbaa !30
  %16 = icmp eq i64 %15, 0
  br i1 %16, label %17, label %20

17:                                               ; preds = %2
  %18 = load ptr, ptr %3, align 8, !tbaa !8
  %19 = getelementptr inbounds nuw %struct.sfparse_vec, ptr %18, i32 0, i32 1
  store i64 0, ptr %19, align 8, !tbaa !30
  store i32 1, ptr %12, align 4
  br label %228

20:                                               ; preds = %2
  %21 = load ptr, ptr %3, align 8, !tbaa !8
  %22 = getelementptr inbounds nuw %struct.sfparse_vec, ptr %21, i32 0, i32 0
  %23 = load ptr, ptr %22, align 8, !tbaa !27
  store ptr %23, ptr %5, align 8, !tbaa !25
  %24 = load ptr, ptr %4, align 8, !tbaa !8
  %25 = getelementptr inbounds nuw %struct.sfparse_vec, ptr %24, i32 0, i32 0
  %26 = load ptr, ptr %25, align 8, !tbaa !27
  store ptr %26, ptr %6, align 8, !tbaa !25
  %27 = load ptr, ptr %4, align 8, !tbaa !8
  %28 = getelementptr inbounds nuw %struct.sfparse_vec, ptr %27, i32 0, i32 1
  %29 = load i64, ptr %28, align 8, !tbaa !30
  %30 = and i64 %29, 3
  store i64 %30, ptr %10, align 8, !tbaa !31
  %31 = load i64, ptr %10, align 8, !tbaa !31
  %32 = icmp eq i64 %31, 0
  br i1 %32, label %33, label %46

33:                                               ; preds = %20
  %34 = load ptr, ptr %4, align 8, !tbaa !8
  %35 = getelementptr inbounds nuw %struct.sfparse_vec, ptr %34, i32 0, i32 0
  %36 = load ptr, ptr %35, align 8, !tbaa !27
  %37 = load ptr, ptr %4, align 8, !tbaa !8
  %38 = getelementptr inbounds nuw %struct.sfparse_vec, ptr %37, i32 0, i32 1
  %39 = load i64, ptr %38, align 8, !tbaa !30
  %40 = sub i64 %39, 1
  %41 = getelementptr inbounds nuw i8, ptr %36, i64 %40
  %42 = load i8, ptr %41, align 1, !tbaa !18
  %43 = zext i8 %42 to i32
  %44 = icmp eq i32 %43, 61
  br i1 %44, label %45, label %46

45:                                               ; preds = %33
  store i64 4, ptr %10, align 8, !tbaa !31
  br label %46

46:                                               ; preds = %45, %33, %20
  %47 = load ptr, ptr %4, align 8, !tbaa !8
  %48 = getelementptr inbounds nuw %struct.sfparse_vec, ptr %47, i32 0, i32 0
  %49 = load ptr, ptr %48, align 8, !tbaa !27
  %50 = load ptr, ptr %4, align 8, !tbaa !8
  %51 = getelementptr inbounds nuw %struct.sfparse_vec, ptr %50, i32 0, i32 1
  %52 = load i64, ptr %51, align 8, !tbaa !30
  %53 = getelementptr inbounds nuw i8, ptr %49, i64 %52
  %54 = load i64, ptr %10, align 8, !tbaa !31
  %55 = sub i64 0, %54
  %56 = getelementptr inbounds i8, ptr %53, i64 %55
  store ptr %56, ptr %7, align 8, !tbaa !25
  br label %57

57:                                               ; preds = %89, %46
  %58 = load ptr, ptr %6, align 8, !tbaa !25
  %59 = load ptr, ptr %7, align 8, !tbaa !25
  %60 = icmp ne ptr %58, %59
  br i1 %60, label %61, label %106

61:                                               ; preds = %57
  store i32 0, ptr %8, align 4, !tbaa !16
  store i64 1, ptr %9, align 8, !tbaa !31
  br label %62

62:                                               ; preds = %84, %61
  %63 = load i64, ptr %9, align 8, !tbaa !31
  %64 = icmp ule i64 %63, 4
  br i1 %64, label %65, label %89

65:                                               ; preds = %62
  %66 = load ptr, ptr %6, align 8, !tbaa !25
  %67 = load i8, ptr %66, align 1, !tbaa !18
  %68 = zext i8 %67 to i64
  %69 = getelementptr inbounds nuw [256 x i32], ptr @sfparse_base64decode.index_tbl, i64 0, i64 %68
  %70 = load i32, ptr %69, align 4, !tbaa !16
  store i32 %70, ptr %11, align 4, !tbaa !16
  %71 = load i32, ptr %11, align 4, !tbaa !16
  %72 = icmp ne i32 %71, -1
  br i1 %72, label %73, label %74

73:                                               ; preds = %65
  br label %75

74:                                               ; preds = %65
  call void @__assert_fail(ptr noundef @.str.2, ptr noundef @.str.1, i32 noundef 1697, ptr noundef @__PRETTY_FUNCTION__.sfparse_base64decode) #6
  unreachable

75:                                               ; preds = %73
  %76 = load i32, ptr %11, align 4, !tbaa !16
  %77 = load i64, ptr %9, align 8, !tbaa !31
  %78 = mul i64 %77, 6
  %79 = sub i64 24, %78
  %80 = trunc i64 %79 to i32
  %81 = shl i32 %76, %80
  %82 = load i32, ptr %8, align 4, !tbaa !16
  %83 = add i32 %82, %81
  store i32 %83, ptr %8, align 4, !tbaa !16
  br label %84

84:                                               ; preds = %75
  %85 = load i64, ptr %9, align 8, !tbaa !31
  %86 = add i64 %85, 1
  store i64 %86, ptr %9, align 8, !tbaa !31
  %87 = load ptr, ptr %6, align 8, !tbaa !25
  %88 = getelementptr inbounds nuw i8, ptr %87, i32 1
  store ptr %88, ptr %6, align 8, !tbaa !25
  br label %62, !llvm.loop !32

89:                                               ; preds = %62
  %90 = load i32, ptr %8, align 4, !tbaa !16
  %91 = lshr i32 %90, 16
  %92 = trunc i32 %91 to i8
  %93 = load ptr, ptr %5, align 8, !tbaa !25
  %94 = getelementptr inbounds nuw i8, ptr %93, i32 1
  store ptr %94, ptr %5, align 8, !tbaa !25
  store i8 %92, ptr %93, align 1, !tbaa !18
  %95 = load i32, ptr %8, align 4, !tbaa !16
  %96 = lshr i32 %95, 8
  %97 = and i32 %96, 255
  %98 = trunc i32 %97 to i8
  %99 = load ptr, ptr %5, align 8, !tbaa !25
  %100 = getelementptr inbounds nuw i8, ptr %99, i32 1
  store ptr %100, ptr %5, align 8, !tbaa !25
  store i8 %98, ptr %99, align 1, !tbaa !18
  %101 = load i32, ptr %8, align 4, !tbaa !16
  %102 = and i32 %101, 255
  %103 = trunc i32 %102 to i8
  %104 = load ptr, ptr %5, align 8, !tbaa !25
  %105 = getelementptr inbounds nuw i8, ptr %104, i32 1
  store ptr %105, ptr %5, align 8, !tbaa !25
  store i8 %103, ptr %104, align 1, !tbaa !18
  br label %57, !llvm.loop !33

106:                                              ; preds = %57
  %107 = load i64, ptr %10, align 8, !tbaa !31
  switch i64 %107, label %153 [
    i64 0, label %108
    i64 1, label %109
    i64 3, label %110
    i64 4, label %124
  ]

108:                                              ; preds = %106
  br label %218

109:                                              ; preds = %106
  call void @__assert_fail(ptr noundef @.str, ptr noundef @.str.1, i32 noundef 1711, ptr noundef @__PRETTY_FUNCTION__.sfparse_base64decode) #6
  unreachable

110:                                              ; preds = %106
  %111 = load ptr, ptr %4, align 8, !tbaa !8
  %112 = getelementptr inbounds nuw %struct.sfparse_vec, ptr %111, i32 0, i32 0
  %113 = load ptr, ptr %112, align 8, !tbaa !27
  %114 = load ptr, ptr %4, align 8, !tbaa !8
  %115 = getelementptr inbounds nuw %struct.sfparse_vec, ptr %114, i32 0, i32 1
  %116 = load i64, ptr %115, align 8, !tbaa !30
  %117 = sub i64 %116, 1
  %118 = getelementptr inbounds nuw i8, ptr %113, i64 %117
  %119 = load i8, ptr %118, align 1, !tbaa !18
  %120 = zext i8 %119 to i32
  %121 = icmp eq i32 %120, 61
  br i1 %121, label %122, label %123

122:                                              ; preds = %110
  store i64 2, ptr %10, align 8, !tbaa !31
  br label %123

123:                                              ; preds = %122, %110
  br label %153

124:                                              ; preds = %106
  %125 = load ptr, ptr %4, align 8, !tbaa !8
  %126 = getelementptr inbounds nuw %struct.sfparse_vec, ptr %125, i32 0, i32 0
  %127 = load ptr, ptr %126, align 8, !tbaa !27
  %128 = load ptr, ptr %4, align 8, !tbaa !8
  %129 = getelementptr inbounds nuw %struct.sfparse_vec, ptr %128, i32 0, i32 1
  %130 = load i64, ptr %129, align 8, !tbaa !30
  %131 = sub i64 %130, 1
  %132 = getelementptr inbounds nuw i8, ptr %127, i64 %131
  %133 = load i8, ptr %132, align 1, !tbaa !18
  %134 = zext i8 %133 to i32
  %135 = icmp eq i32 61, %134
  br i1 %135, label %136, label %137

136:                                              ; preds = %124
  br label %138

137:                                              ; preds = %124
  call void @__assert_fail(ptr noundef @.str.3, ptr noundef @.str.1, i32 noundef 1720, ptr noundef @__PRETTY_FUNCTION__.sfparse_base64decode) #6
  unreachable

138:                                              ; preds = %136
  %139 = load ptr, ptr %4, align 8, !tbaa !8
  %140 = getelementptr inbounds nuw %struct.sfparse_vec, ptr %139, i32 0, i32 0
  %141 = load ptr, ptr %140, align 8, !tbaa !27
  %142 = load ptr, ptr %4, align 8, !tbaa !8
  %143 = getelementptr inbounds nuw %struct.sfparse_vec, ptr %142, i32 0, i32 1
  %144 = load i64, ptr %143, align 8, !tbaa !30
  %145 = sub i64 %144, 2
  %146 = getelementptr inbounds nuw i8, ptr %141, i64 %145
  %147 = load i8, ptr %146, align 1, !tbaa !18
  %148 = zext i8 %147 to i32
  %149 = icmp eq i32 %148, 61
  br i1 %149, label %150, label %151

150:                                              ; preds = %138
  store i64 2, ptr %10, align 8, !tbaa !31
  br label %152

151:                                              ; preds = %138
  store i64 3, ptr %10, align 8, !tbaa !31
  br label %152

152:                                              ; preds = %151, %150
  br label %153

153:                                              ; preds = %106, %152, %123
  %154 = load i64, ptr %10, align 8, !tbaa !31
  switch i64 %154, label %217 [
    i64 2, label %155
    i64 3, label %180
  ]

155:                                              ; preds = %153
  %156 = load ptr, ptr %6, align 8, !tbaa !25
  %157 = getelementptr inbounds nuw i8, ptr %156, i32 1
  store ptr %157, ptr %6, align 8, !tbaa !25
  %158 = load i8, ptr %156, align 1, !tbaa !18
  %159 = zext i8 %158 to i64
  %160 = getelementptr inbounds nuw [256 x i32], ptr @sfparse_base64decode.index_tbl, i64 0, i64 %159
  %161 = load i32, ptr %160, align 4, !tbaa !16
  %162 = shl i32 %161, 2
  %163 = trunc i32 %162 to i8
  %164 = load ptr, ptr %5, align 8, !tbaa !25
  store i8 %163, ptr %164, align 1, !tbaa !18
  %165 = load ptr, ptr %6, align 8, !tbaa !25
  %166 = getelementptr inbounds nuw i8, ptr %165, i32 1
  store ptr %166, ptr %6, align 8, !tbaa !25
  %167 = load i8, ptr %165, align 1, !tbaa !18
  %168 = zext i8 %167 to i64
  %169 = getelementptr inbounds nuw [256 x i32], ptr @sfparse_base64decode.index_tbl, i64 0, i64 %168
  %170 = load i32, ptr %169, align 4, !tbaa !16
  %171 = ashr i32 %170, 4
  %172 = trunc i32 %171 to i8
  %173 = zext i8 %172 to i32
  %174 = load ptr, ptr %5, align 8, !tbaa !25
  %175 = getelementptr inbounds nuw i8, ptr %174, i32 1
  store ptr %175, ptr %5, align 8, !tbaa !25
  %176 = load i8, ptr %174, align 1, !tbaa !18
  %177 = zext i8 %176 to i32
  %178 = or i32 %177, %173
  %179 = trunc i32 %178 to i8
  store i8 %179, ptr %174, align 1, !tbaa !18
  br label %217

180:                                              ; preds = %153
  %181 = load ptr, ptr %6, align 8, !tbaa !25
  %182 = getelementptr inbounds nuw i8, ptr %181, i32 1
  store ptr %182, ptr %6, align 8, !tbaa !25
  %183 = load i8, ptr %181, align 1, !tbaa !18
  %184 = zext i8 %183 to i64
  %185 = getelementptr inbounds nuw [256 x i32], ptr @sfparse_base64decode.index_tbl, i64 0, i64 %184
  %186 = load i32, ptr %185, align 4, !tbaa !16
  %187 = shl i32 %186, 10
  store i32 %187, ptr %8, align 4, !tbaa !16
  %188 = load ptr, ptr %6, align 8, !tbaa !25
  %189 = getelementptr inbounds nuw i8, ptr %188, i32 1
  store ptr %189, ptr %6, align 8, !tbaa !25
  %190 = load i8, ptr %188, align 1, !tbaa !18
  %191 = zext i8 %190 to i64
  %192 = getelementptr inbounds nuw [256 x i32], ptr @sfparse_base64decode.index_tbl, i64 0, i64 %191
  %193 = load i32, ptr %192, align 4, !tbaa !16
  %194 = shl i32 %193, 4
  %195 = load i32, ptr %8, align 4, !tbaa !16
  %196 = add i32 %195, %194
  store i32 %196, ptr %8, align 4, !tbaa !16
  %197 = load ptr, ptr %6, align 8, !tbaa !25
  %198 = getelementptr inbounds nuw i8, ptr %197, i32 1
  store ptr %198, ptr %6, align 8, !tbaa !25
  %199 = load i8, ptr %197, align 1, !tbaa !18
  %200 = zext i8 %199 to i64
  %201 = getelementptr inbounds nuw [256 x i32], ptr @sfparse_base64decode.index_tbl, i64 0, i64 %200
  %202 = load i32, ptr %201, align 4, !tbaa !16
  %203 = ashr i32 %202, 2
  %204 = load i32, ptr %8, align 4, !tbaa !16
  %205 = add i32 %204, %203
  store i32 %205, ptr %8, align 4, !tbaa !16
  %206 = load i32, ptr %8, align 4, !tbaa !16
  %207 = lshr i32 %206, 8
  %208 = and i32 %207, 255
  %209 = trunc i32 %208 to i8
  %210 = load ptr, ptr %5, align 8, !tbaa !25
  %211 = getelementptr inbounds nuw i8, ptr %210, i32 1
  store ptr %211, ptr %5, align 8, !tbaa !25
  store i8 %209, ptr %210, align 1, !tbaa !18
  %212 = load i32, ptr %8, align 4, !tbaa !16
  %213 = and i32 %212, 255
  %214 = trunc i32 %213 to i8
  %215 = load ptr, ptr %5, align 8, !tbaa !25
  %216 = getelementptr inbounds nuw i8, ptr %215, i32 1
  store ptr %216, ptr %5, align 8, !tbaa !25
  store i8 %214, ptr %215, align 1, !tbaa !18
  br label %217

217:                                              ; preds = %153, %180, %155
  br label %218

218:                                              ; preds = %217, %108
  %219 = load ptr, ptr %5, align 8, !tbaa !25
  %220 = load ptr, ptr %3, align 8, !tbaa !8
  %221 = getelementptr inbounds nuw %struct.sfparse_vec, ptr %220, i32 0, i32 0
  %222 = load ptr, ptr %221, align 8, !tbaa !27
  %223 = ptrtoint ptr %219 to i64
  %224 = ptrtoint ptr %222 to i64
  %225 = sub i64 %223, %224
  %226 = load ptr, ptr %3, align 8, !tbaa !8
  %227 = getelementptr inbounds nuw %struct.sfparse_vec, ptr %226, i32 0, i32 1
  store i64 %225, ptr %227, align 8, !tbaa !30
  store i32 0, ptr %12, align 4
  br label %228

228:                                              ; preds = %218, %17
  call void @llvm.lifetime.end.p0(i64 4, ptr %11) #5
  call void @llvm.lifetime.end.p0(i64 8, ptr %10) #5
  call void @llvm.lifetime.end.p0(i64 8, ptr %9) #5
  call void @llvm.lifetime.end.p0(i64 4, ptr %8) #5
  call void @llvm.lifetime.end.p0(i64 8, ptr %7) #5
  call void @llvm.lifetime.end.p0(i64 8, ptr %6) #5
  call void @llvm.lifetime.end.p0(i64 8, ptr %5) #5
  %229 = load i32, ptr %12, align 4
  switch i32 %229, label %231 [
    i32 0, label %230
    i32 1, label %230
  ]

230:                                              ; preds = %228, %228
  ret void

231:                                              ; preds = %228
  unreachable
}