; Function Attrs: nounwind uwtable
define hidden void @sfparse_base64decode(ptr noundef captures(none) %0, ptr noundef readonly captures(none) %1) local_unnamed_addr #0 {
  %3 = getelementptr inbounds nuw i8, ptr %1, i64 8
  %4 = load i64, ptr %3, align 8, !tbaa !22
  %5 = icmp eq i64 %4, 0
  br i1 %5, label %106, label %6

6:                                                ; preds = %2
  %7 = load ptr, ptr %0, align 8, !tbaa !19
  %8 = load ptr, ptr %1, align 8, !tbaa !19
  %9 = and i64 %4, 3
  %10 = icmp eq i64 %9, 0
  br i1 %10, label %11, label %16

11:                                               ; preds = %6
  %12 = getelementptr i8, ptr %8, i64 %4
  %13 = getelementptr i8, ptr %12, i64 -1
  %14 = load i8, ptr %13, align 1, !tbaa !12
  %15 = icmp eq i8 %14, 61
  %spec.select = select i1 %15, i64 4, i64 0
  br label %16

16:                                               ; preds = %11, %6
  %.050 = phi i64 [ %9, %6 ], [ %spec.select, %11 ]
  %17 = getelementptr inbounds nuw i8, ptr %8, i64 %4
  %18 = sub nsw i64 0, %.050
  %19 = getelementptr inbounds i8, ptr %17, i64 %18
  %.not74 = icmp eq ptr %8, %19
  br i1 %.not74, label %._crit_edge, label %.preheader

.preheader:                                       ; preds = %16, %34
  %.076 = phi ptr [ %42, %34 ], [ %7, %16 ]
  %.05475 = phi ptr [ %scevgep, %34 ], [ %8, %16 ]
  %scevgep = getelementptr i8, ptr %.05475, i64 4
  br label %20

20:                                               ; preds = %.preheader, %26
  %.05273 = phi i64 [ 1, %.preheader ], [ %32, %26 ]
  %.05372 = phi i32 [ 0, %.preheader ], [ %31, %26 ]
  %.15571 = phi ptr [ %.05475, %.preheader ], [ %33, %26 ]
  %21 = load i8, ptr %.15571, align 1, !tbaa !12
  %22 = zext i8 %21 to i64
  %23 = getelementptr inbounds nuw [256 x i32], ptr @sfparse_base64decode.index_tbl, i64 0, i64 %22
  %24 = load i32, ptr %23, align 4, !tbaa !25
  %.not60 = icmp eq i32 %24, -1
  br i1 %.not60, label %25, label %26

25:                                               ; preds = %20
  tail call void @__assert_fail(ptr noundef nonnull @.str.2, ptr noundef nonnull @.str.1, i32 noundef 1697, ptr noundef nonnull @__PRETTY_FUNCTION__.sfparse_base64decode) #8
  unreachable

26:                                               ; preds = %20
  %27 = trunc nuw i64 %.05273 to i32
  %28 = mul nsw i32 %27, -6
  %29 = add nsw i32 %28, 24
  %30 = shl i32 %24, %29
  %31 = add i32 %30, %.05372
  %32 = add nuw nsw i64 %.05273, 1
  %33 = getelementptr inbounds nuw i8, ptr %.15571, i64 1
  %exitcond.not = icmp eq i64 %32, 5
  br i1 %exitcond.not, label %34, label %20, !llvm.loop !26

34:                                               ; preds = %26
  %35 = lshr i32 %31, 16
  %36 = trunc i32 %35 to i8
  %37 = getelementptr inbounds nuw i8, ptr %.076, i64 1
  store i8 %36, ptr %.076, align 1, !tbaa !12
  %38 = lshr i32 %31, 8
  %39 = trunc i32 %38 to i8
  %40 = getelementptr inbounds nuw i8, ptr %.076, i64 2
  store i8 %39, ptr %37, align 1, !tbaa !12
  %41 = trunc i32 %31 to i8
  %42 = getelementptr inbounds nuw i8, ptr %.076, i64 3
  store i8 %41, ptr %40, align 1, !tbaa !12
  %.not = icmp eq ptr %scevgep, %19
  br i1 %.not, label %._crit_edge, label %.preheader, !llvm.loop !27

._crit_edge:                                      ; preds = %34, %16
  %.054.lcssa = phi ptr [ %8, %16 ], [ %19, %34 ]
  %.0.lcssa = phi ptr [ %7, %16 ], [ %42, %34 ]
  switch i64 %.050, label %101 [
    i64 2, label %.thread
    i64 1, label %43
    i64 3, label %44
    i64 4, label %51
  ]

43:                                               ; preds = %._crit_edge
  tail call void @__assert_fail(ptr noundef nonnull @.str, ptr noundef nonnull @.str.1, i32 noundef 1711, ptr noundef nonnull @__PRETTY_FUNCTION__.sfparse_base64decode) #8
  unreachable

44:                                               ; preds = %._crit_edge
  %45 = load ptr, ptr %1, align 8, !tbaa !19
  %46 = load i64, ptr %3, align 8, !tbaa !22
  %47 = getelementptr i8, ptr %45, i64 %46
  %48 = getelementptr i8, ptr %47, i64 -1
  %49 = load i8, ptr %48, align 1, !tbaa !12
  %50 = icmp eq i8 %49, 61
  br i1 %50, label %.thread, label %.thread65

51:                                               ; preds = %._crit_edge
  %52 = load ptr, ptr %1, align 8, !tbaa !19
  %53 = load i64, ptr %3, align 8, !tbaa !22
  %54 = getelementptr i8, ptr %52, i64 %53
  %55 = getelementptr i8, ptr %54, i64 -1
  %56 = load i8, ptr %55, align 1, !tbaa !12
  %57 = icmp eq i8 %56, 61
  br i1 %57, label %59, label %58

58:                                               ; preds = %51
  tail call void @__assert_fail(ptr noundef nonnull @.str.3, ptr noundef nonnull @.str.1, i32 noundef 1720, ptr noundef nonnull @__PRETTY_FUNCTION__.sfparse_base64decode) #8
  unreachable

59:                                               ; preds = %51
  %60 = getelementptr i8, ptr %54, i64 -2
  %61 = load i8, ptr %60, align 1, !tbaa !12
  %62 = icmp eq i8 %61, 61
  br i1 %62, label %.thread, label %.thread65

.thread:                                          ; preds = %._crit_edge, %59, %44
  %63 = getelementptr inbounds nuw i8, ptr %.054.lcssa, i64 1
  %64 = load i8, ptr %.054.lcssa, align 1, !tbaa !12
  %65 = zext i8 %64 to i64
  %66 = getelementptr inbounds nuw [256 x i32], ptr @sfparse_base64decode.index_tbl, i64 0, i64 %65
  %67 = load i32, ptr %66, align 4, !tbaa !25
  %.tr = trunc i32 %67 to i8
  %68 = shl i8 %.tr, 2
  store i8 %68, ptr %.0.lcssa, align 1, !tbaa !12
  %69 = load i8, ptr %63, align 1, !tbaa !12
  %70 = zext i8 %69 to i64
  %71 = getelementptr inbounds nuw [256 x i32], ptr @sfparse_base64decode.index_tbl, i64 0, i64 %70
  %72 = load i32, ptr %71, align 4, !tbaa !25
  %73 = lshr i32 %72, 4
  %74 = getelementptr inbounds nuw i8, ptr %.0.lcssa, i64 1
  %75 = trunc i32 %73 to i8
  %76 = or i8 %68, %75
  store i8 %76, ptr %.0.lcssa, align 1, !tbaa !12
  br label %101

.thread65:                                        ; preds = %59, %44
  %77 = getelementptr inbounds nuw i8, ptr %.054.lcssa, i64 1
  %78 = load i8, ptr %.054.lcssa, align 1, !tbaa !12
  %79 = zext i8 %78 to i64
  %80 = getelementptr inbounds nuw [256 x i32], ptr @sfparse_base64decode.index_tbl, i64 0, i64 %79
  %81 = load i32, ptr %80, align 4, !tbaa !25
  %82 = shl i32 %81, 10
  %83 = getelementptr inbounds nuw i8, ptr %.054.lcssa, i64 2
  %84 = load i8, ptr %77, align 1, !tbaa !12
  %85 = zext i8 %84 to i64
  %86 = getelementptr inbounds nuw [256 x i32], ptr @sfparse_base64decode.index_tbl, i64 0, i64 %85
  %87 = load i32, ptr %86, align 4, !tbaa !25
  %88 = shl i32 %87, 4
  %89 = add i32 %88, %82
  %90 = load i8, ptr %83, align 1, !tbaa !12
  %91 = zext i8 %90 to i64
  %92 = getelementptr inbounds nuw [256 x i32], ptr @sfparse_base64decode.index_tbl, i64 0, i64 %91
  %93 = load i32, ptr %92, align 4, !tbaa !25
  %94 = ashr i32 %93, 2
  %95 = add i32 %89, %94
  %96 = lshr i32 %95, 8
  %97 = trunc i32 %96 to i8
  %98 = getelementptr inbounds nuw i8, ptr %.0.lcssa, i64 1
  store i8 %97, ptr %.0.lcssa, align 1, !tbaa !12
  %99 = trunc i32 %95 to i8
  %100 = getelementptr inbounds nuw i8, ptr %.0.lcssa, i64 2
  store i8 %99, ptr %98, align 1, !tbaa !12
  br label %101

101:                                              ; preds = %._crit_edge, %.thread, %.thread65
  %.1 = phi ptr [ %100, %.thread65 ], [ %74, %.thread ], [ %.0.lcssa, %._crit_edge ]
  %102 = load ptr, ptr %0, align 8, !tbaa !19
  %103 = ptrtoint ptr %.1 to i64
  %104 = ptrtoint ptr %102 to i64
  %105 = sub i64 %103, %104
  br label %106

106:                                              ; preds = %2, %101
  %.sink = phi i64 [ %105, %101 ], [ 0, %2 ]
  %107 = getelementptr inbounds nuw i8, ptr %0, i64 8
  store i64 %.sink, ptr %107, align 8, !tbaa !22
  ret void
}